; Function Attrs: nounwind uwtable
define i32 @arkStep_NlsResidual_MassFixed_TrivialPredAutonomous(ptr noundef %0, ptr noundef %1, ptr noundef %2) #0 {
  %4 = alloca ptr, align 8
  %5 = alloca ptr, align 8
  %6 = alloca i32, align 4
  %7 = alloca [3 x double], align 16
  %8 = alloca [3 x ptr], align 16
  call void @llvm.lifetime.start.p0(i64 8, ptr nonnull %4) #5
  call void @llvm.lifetime.start.p0(i64 8, ptr nonnull %5) #5
  call void @llvm.lifetime.start.p0(i64 4, ptr nonnull %6) #5
  call void @llvm.lifetime.start.p0(i64 24, ptr nonnull %7) #5
  call void @llvm.lifetime.start.p0(i64 24, ptr nonnull %8) #5
  %9 = call i32 @arkStep_AccessARKODEStepMem(ptr noundef %2, ptr noundef nonnull @__func__.arkStep_NlsResidual_MassFixed_TrivialPredAutonomous, ptr noundef nonnull %4, ptr noundef nonnull %5) #5
  %.not = icmp eq i32 %9, 0
  br i1 %.not, label %10, label %84

10:                                               ; preds = %3
  %11 = load ptr, ptr %5, align 8, !tbaa !14
  %12 = getelementptr inbounds nuw i8, ptr %11, i64 72
  %13 = load ptr, ptr %12, align 8, !tbaa !39
  %14 = load ptr, ptr %4, align 8, !tbaa !40
  %15 = getelementptr inbounds nuw i8, ptr %14, i64 584
  %16 = load ptr, ptr %15, align 8, !tbaa !42
  call void @N_VLinearSum(double noundef 1.000000e+00, ptr noundef %13, double noundef 1.000000e+00, ptr noundef %0, ptr noundef %16) #5
  %17 = load ptr, ptr %5, align 8, !tbaa !14
  %18 = getelementptr inbounds nuw i8, ptr %17, i64 128
  %19 = load ptr, ptr %18, align 8, !tbaa !16
  %20 = call i32 @SUNNonlinSolGetCurIter(ptr noundef %19, ptr noundef nonnull %6) #5
  %.not16 = icmp eq i32 %20, 0
  br i1 %.not16, label %21, label %84

21:                                               ; preds = %10
  %22 = load i32, ptr %6, align 4, !tbaa !31
  %23 = icmp eq i32 %22, 0
  %.pre = load ptr, ptr %5, align 8, !tbaa !14
  br i1 %23, label %24, label %35

24:                                               ; preds = %21
  %25 = getelementptr inbounds nuw i8, ptr %.pre, i64 272
  %26 = load ptr, ptr %25, align 8, !tbaa !48
  %.not17 = icmp eq ptr %26, null
  br i1 %.not17, label %35, label %27

27:                                               ; preds = %24
  %28 = getelementptr inbounds nuw i8, ptr %.pre, i64 48
  %29 = load ptr, ptr %28, align 8, !tbaa !49
  %30 = getelementptr inbounds nuw i8, ptr %.pre, i64 96
  %31 = load i32, ptr %30, align 8, !tbaa !50
  %32 = sext i32 %31 to i64
  %33 = getelementptr inbounds ptr, ptr %29, i64 %32
  %34 = load ptr, ptr %33, align 8, !tbaa !51
  call void @N_VScale(double noundef 1.000000e+00, ptr noundef nonnull %26, ptr noundef %34) #5
  %.pre21 = load ptr, ptr %5, align 8, !tbaa !14
  br label %59

35:                                               ; preds = %24, %21
  %36 = getelementptr inbounds nuw i8, ptr %.pre, i64 144
  %37 = load ptr, ptr %36, align 8, !tbaa !29
  %38 = load ptr, ptr %4, align 8, !tbaa !40
  %39 = getelementptr inbounds nuw i8, ptr %38, i64 752
  %40 = load double, ptr %39, align 8, !tbaa !52
  %41 = getelementptr inbounds nuw i8, ptr %38, i64 584
  %42 = load ptr, ptr %41, align 8, !tbaa !42
  %43 = getelementptr inbounds nuw i8, ptr %.pre, i64 48
  %44 = load ptr, ptr %43, align 8, !tbaa !49
  %45 = getelementptr inbounds nuw i8, ptr %.pre, i64 96
  %46 = load i32, ptr %45, align 8, !tbaa !50
  %47 = sext i32 %46 to i64
  %48 = getelementptr inbounds ptr, ptr %44, i64 %47
  %49 = load ptr, ptr %48, align 8, !tbaa !51
  %50 = getelementptr inbounds nuw i8, ptr %38, i64 16
  %51 = load ptr, ptr %50, align 8, !tbaa !53
  %52 = call i32 %37(double noundef %40, ptr noundef %42, ptr noundef %49, ptr noundef %51) #5
  %53 = load ptr, ptr %5, align 8, !tbaa !14
  %54 = getelementptr inbounds nuw i8, ptr %53, i64 392
  %55 = load i64, ptr %54, align 8, !tbaa !54
  %56 = add nsw i64 %55, 1
  store i64 %56, ptr %54, align 8, !tbaa !54
  %57 = icmp slt i32 %52, 0
  br i1 %57, label %84, label %58

58:                                               ; preds = %35
  %.not18 = icmp eq i32 %52, 0
  br i1 %.not18, label %59, label %84

59:                                               ; preds = %58, %27
  %60 = phi ptr [ %53, %58 ], [ %.pre21, %27 ]
  %61 = getelementptr inbounds nuw i8, ptr %60, i64 344
  %62 = load ptr, ptr %61, align 8, !tbaa !58
  %63 = load ptr, ptr %4, align 8, !tbaa !40
  %64 = call i32 %62(ptr noundef %63, ptr noundef %0, ptr noundef %1) #5
  %.not19 = icmp eq i32 %64, 0
  br i1 %.not19, label %65, label %84

65:                                               ; preds = %59
  store double 1.000000e+00, ptr %7, align 16, !tbaa !55
  store ptr %1, ptr %8, align 16, !tbaa !51
  %66 = getelementptr inbounds nuw i8, ptr %7, i64 8
  store double -1.000000e+00, ptr %66, align 8, !tbaa !55
  %67 = load ptr, ptr %5, align 8, !tbaa !14
  %68 = getelementptr inbounds nuw i8, ptr %67, i64 64
  %69 = load ptr, ptr %68, align 8, !tbaa !56
  %70 = getelementptr inbounds nuw i8, ptr %8, i64 8
  store ptr %69, ptr %70, align 8, !tbaa !51
  %71 = getelementptr inbounds nuw i8, ptr %67, i64 152
  %72 = load double, ptr %71, align 8, !tbaa !57
  %73 = fneg double %72
  %74 = getelementptr inbounds nuw i8, ptr %7, i64 16
  store double %73, ptr %74, align 16, !tbaa !55
  %75 = getelementptr inbounds nuw i8, ptr %67, i64 48
  %76 = load ptr, ptr %75, align 8, !tbaa !49
  %77 = getelementptr inbounds nuw i8, ptr %67, i64 96
  %78 = load i32, ptr %77, align 8, !tbaa !50
  %79 = sext i32 %78 to i64
  %80 = getelementptr inbounds ptr, ptr %76, i64 %79
  %81 = load ptr, ptr %80, align 8, !tbaa !51
  %82 = getelementptr inbounds nuw i8, ptr %8, i64 16
  store ptr %81, ptr %82, align 16, !tbaa !51
  %83 = call i32 @N_VLinearCombination(i32 noundef 3, ptr noundef nonnull %7, ptr noundef nonnull %8, ptr noundef %1) #5
  %.not20 = icmp eq i32 %83, 0
  %. = select i1 %.not20, i32 0, i32 -28
  br label %84

84:                                               ; preds = %65, %59, %58, %35, %10, %3
  %.0 = phi i32 [ %9, %3 ], [ -32, %10 ], [ -8, %35 ], [ 9, %58 ], [ -18, %59 ], [ %., %65 ]
  call void @llvm.lifetime.end.p0(i64 24, ptr nonnull %8) #5
  call void @llvm.lifetime.end.p0(i64 24, ptr nonnull %7) #5
  call void @llvm.lifetime.end.p0(i64 4, ptr nonnull %6) #5
  call void @llvm.lifetime.end.p0(i64 8, ptr nonnull %5) #5
  call void @llvm.lifetime.end.p0(i64 8, ptr nonnull %4) #5
  ret i32 %.0
}